target datalayout = "e-m:e-p270:32:32-p271:32:32-p272:64:64-i64:64-i128:128-f80:128-n8:16:32:64-S128"
target triple = "x86_64-pc-linux-gnu"

%"struct.duckdb::hugeint_t" = type { i64, i64 }

; Function Attrs: mustprogress nounwind uwtable
define linkonce_odr void @_ZN6duckdb9hugeint_tC2Elm(ptr noundef nonnull align 8 dereferenceable(16) %0, i64 noundef %1, i64 noundef %2) unnamed_addr #5 comdat align 2 {
  %4 = alloca ptr, align 8
  %5 = alloca i64, align 8
  %6 = alloca i64, align 8
  store ptr %0, ptr %4, align 8, !tbaa !157
  store i64 %1, ptr %5, align 8, !tbaa !12
  store i64 %2, ptr %6, align 8, !tbaa !12
  %7 = load ptr, ptr %4, align 8
  %8 = getelementptr inbounds nuw %"struct.duckdb::hugeint_t", ptr %7, i32 0, i32 0
  %9 = load i64, ptr %6, align 8, !tbaa !12
  store i64 %9, ptr %8, align 8, !tbaa !165
  %10 = getelementptr inbounds nuw %"struct.duckdb::hugeint_t", ptr %7, i32 0, i32 1
  %11 = load i64, ptr %5, align 8, !tbaa !12
  store i64 %11, ptr %10, align 8, !tbaa !163
  ret void
}

; Function Attrs: mustprogress nounwind uwtable
define linkonce_odr noundef i64 @_ZNSt14numeric_limitsImE3maxEv() #5 comdat align 2 {
  ret i64 -1
}

; Function Attrs: mustprogress nounwind uwtable
define linkonce_odr noundef i64 @_ZNSt14numeric_limitsIlE3maxEv() #5 comdat align 2 {
  ret i64 9223372036854775807
}

; Function Attrs: mustprogress uwtable
define linkonce_odr { i64, i64 } @_ZN6duckdb13NumericLimitsINS_9hugeint_tEE7MaximumEv() #0 comdat align 2 {
  %1 = alloca %"struct.duckdb::hugeint_t", align 8
  %2 = call noundef i64 @_ZNSt14numeric_limitsIlE3maxEv() #19
  %3 = call noundef i64 @_ZNSt14numeric_limitsImE3maxEv() #19
  call void @_ZN6duckdb9hugeint_tC2Elm(ptr noundef nonnull align 8 dereferenceable(16) %1, i64 noundef %2, i64 noundef %3)
  %4 = load { i64, i64 }, ptr %1, align 8
  ret { i64, i64 } %4
}

; Function Attrs: mustprogress uwtable
define internal void @_ZN6duckdbL19WriteParquetDecimalENS_9hugeint_tEPh(i64 %0, i64 %1, ptr noundef %2) #0 {
  %4 = alloca %"struct.duckdb::hugeint_t", align 8
  %5 = alloca ptr, align 8
  %6 = alloca i8, align 1
  %7 = alloca %"struct.duckdb::hugeint_t", align 8
  %8 = alloca %"struct.duckdb::hugeint_t", align 8
  %9 = alloca %"struct.duckdb::hugeint_t", align 8
  %10 = alloca %"struct.duckdb::hugeint_t", align 8
  %11 = alloca %"struct.duckdb::hugeint_t", align 8
  %12 = alloca i64, align 8
  %13 = alloca i64, align 8
  %14 = alloca i64, align 8
  %15 = alloca i64, align 8
  %16 = alloca i64, align 8
  %17 = alloca i64, align 8
  %18 = getelementptr inbounds nuw { i64, i64 }, ptr %4, i32 0, i32 0
  store i64 %0, ptr %18, align 8
  %19 = getelementptr inbounds nuw { i64, i64 }, ptr %4, i32 0, i32 1
  store i64 %1, ptr %19, align 8
  store ptr %2, ptr %5, align 8, !tbaa !161
  call void @llvm.lifetime.start.p0(i64 1, ptr %6) #19
  call void @llvm.lifetime.start.p0(i64 16, ptr %7) #19
  call void @_ZN6duckdb9hugeint_tC1El(ptr noundef nonnull align 8 dereferenceable(16) %7, i64 noundef 0)
  %20 = call noundef zeroext i1 @_ZNK6duckdb9hugeint_tgeERKS0_(ptr noundef nonnull align 8 dereferenceable(16) %4, ptr noundef nonnull align 8 dereferenceable(16) %7)
  call void @llvm.lifetime.end.p0(i64 16, ptr %7) #19
  %21 = zext i1 %20 to i8
  store i8 %21, ptr %6, align 1, !tbaa !87
  %22 = load i8, ptr %6, align 1, !tbaa !87, !range !89, !noundef !90
  %23 = trunc i8 %22 to i1
  br i1 %23, label %40, label %24

24:                                               ; preds = %3
  call void @llvm.lifetime.start.p0(i64 16, ptr %8) #19
  call void @llvm.lifetime.start.p0(i64 16, ptr %9) #19
  call void @llvm.lifetime.start.p0(i64 16, ptr %10) #19
  %25 = call { i64, i64 } @_ZN6duckdb13NumericLimitsINS_9hugeint_tEE7MaximumEv()
  %26 = getelementptr inbounds nuw { i64, i64 }, ptr %10, i32 0, i32 0
  %27 = extractvalue { i64, i64 } %25, 0
  store i64 %27, ptr %26, align 8
  %28 = getelementptr inbounds nuw { i64, i64 }, ptr %10, i32 0, i32 1
  %29 = extractvalue { i64, i64 } %25, 1
  store i64 %29, ptr %28, align 8
  %30 = call { i64, i64 } @_ZNK6duckdb9hugeint_tplERKS0_(ptr noundef nonnull align 8 dereferenceable(16) %10, ptr noundef nonnull align 8 dereferenceable(16) %4)
  %31 = getelementptr inbounds nuw { i64, i64 }, ptr %9, i32 0, i32 0
  %32 = extractvalue { i64, i64 } %30, 0
  store i64 %32, ptr %31, align 8
  %33 = getelementptr inbounds nuw { i64, i64 }, ptr %9, i32 0, i32 1
  %34 = extractvalue { i64, i64 } %30, 1
  store i64 %34, ptr %33, align 8
  call void @llvm.lifetime.start.p0(i64 16, ptr %11) #19
  call void @_ZN6duckdb9hugeint_tC1El(ptr noundef nonnull align 8 dereferenceable(16) %11, i64 noundef 1)
  %35 = call { i64, i64 } @_ZNK6duckdb9hugeint_tplERKS0_(ptr noundef nonnull align 8 dereferenceable(16) %9, ptr noundef nonnull align 8 dereferenceable(16) %11)
  %36 = getelementptr inbounds nuw { i64, i64 }, ptr %8, i32 0, i32 0
  %37 = extractvalue { i64, i64 } %35, 0
  store i64 %37, ptr %36, align 8
  %38 = getelementptr inbounds nuw { i64, i64 }, ptr %8, i32 0, i32 1
  %39 = extractvalue { i64, i64 } %35, 1
  store i64 %39, ptr %38, align 8
  call void @llvm.memcpy.p0.p0.i64(ptr align 8 %4, ptr align 8 %8, i64 16, i1 false), !tbaa.struct !159
  call void @llvm.lifetime.end.p0(i64 16, ptr %11) #19
  call void @llvm.lifetime.end.p0(i64 16, ptr %10) #19
  call void @llvm.lifetime.end.p0(i64 16, ptr %9) #19
  call void @llvm.lifetime.end.p0(i64 16, ptr %8) #19
  br label %40

40:                                               ; preds = %24, %3
  call void @llvm.lifetime.start.p0(i64 8, ptr %12) #19
  %41 = getelementptr inbounds nuw %"struct.duckdb::hugeint_t", ptr %4, i32 0, i32 1
  %42 = load i64, ptr %41, align 8, !tbaa !163
  store i64 %42, ptr %12, align 8, !tbaa !12
  call void @llvm.lifetime.start.p0(i64 8, ptr %13) #19
  %43 = getelementptr inbounds nuw %"struct.duckdb::hugeint_t", ptr %4, i32 0, i32 0
  %44 = load i64, ptr %43, align 8, !tbaa !165
  store i64 %44, ptr %13, align 8, !tbaa !12
  call void @llvm.lifetime.start.p0(i64 8, ptr %14) #19
  store i64 0, ptr %14, align 8, !tbaa !12
  br label %45

45:                                               ; preds = %62, %40
  %46 = load i64, ptr %14, align 8, !tbaa !12
  %47 = icmp ult i64 %46, 8
  br i1 %47, label %49, label %48

48:                                               ; preds = %45
  call void @llvm.lifetime.end.p0(i64 8, ptr %14) #19
  br label %65

49:                                               ; preds = %45
  call void @llvm.lifetime.start.p0(i64 8, ptr %15) #19
  %50 = load i64, ptr %14, align 8, !tbaa !12
  %51 = sub i64 8, %50
  %52 = sub i64 %51, 1
  %53 = mul i64 %52, 8
  store i64 %53, ptr %15, align 8, !tbaa !12
  %54 = load i64, ptr %12, align 8, !tbaa !12
  %55 = load i64, ptr %15, align 8, !tbaa !12
  %56 = lshr i64 %54, %55
  %57 = and i64 %56, 255
  %58 = trunc i64 %57 to i8
  %59 = load ptr, ptr %5, align 8, !tbaa !161
  %60 = load i64, ptr %14, align 8, !tbaa !12
  %61 = getelementptr inbounds nuw i8, ptr %59, i64 %60
  store i8 %58, ptr %61, align 1, !tbaa !140
  call void @llvm.lifetime.end.p0(i64 8, ptr %15) #19
  br label %62

62:                                               ; preds = %49
  %63 = load i64, ptr %14, align 8, !tbaa !12
  %64 = add i64 %63, 1
  store i64 %64, ptr %14, align 8, !tbaa !12
  br label %45, !llvm.loop !166

65:                                               ; preds = %48
  call void @llvm.lifetime.start.p0(i64 8, ptr %16) #19
  store i64 0, ptr %16, align 8, !tbaa !12
  br label %66

66:                                               ; preds = %84, %65
  %67 = load i64, ptr %16, align 8, !tbaa !12
  %68 = icmp ult i64 %67, 8
  br i1 %68, label %70, label %69

69:                                               ; preds = %66
  call void @llvm.lifetime.end.p0(i64 8, ptr %16) #19
  br label %87

70:                                               ; preds = %66
  call void @llvm.lifetime.start.p0(i64 8, ptr %17) #19
  %71 = load i64, ptr %16, align 8, !tbaa !12
  %72 = sub i64 8, %71
  %73 = sub i64 %72, 1
  %74 = mul i64 %73, 8
  store i64 %74, ptr %17, align 8, !tbaa !12
  %75 = load i64, ptr %13, align 8, !tbaa !12
  %76 = load i64, ptr %17, align 8, !tbaa !12
  %77 = lshr i64 %75, %76
  %78 = and i64 %77, 255
  %79 = trunc i64 %78 to i8
  %80 = load ptr, ptr %5, align 8, !tbaa !161
  %81 = load i64, ptr %16, align 8, !tbaa !12
  %82 = add i64 8, %81
  %83 = getelementptr inbounds nuw i8, ptr %80, i64 %82
  store i8 %79, ptr %83, align 1, !tbaa !140
  call void @llvm.lifetime.end.p0(i64 8, ptr %17) #19
  br label %84

84:                                               ; preds = %70
  %85 = load i64, ptr %16, align 8, !tbaa !12
  %86 = add i64 %85, 1
  store i64 %86, ptr %16, align 8, !tbaa !12
  br label %66, !llvm.loop !167

87:                                               ; preds = %69
  %88 = load i8, ptr %6, align 1, !tbaa !87, !range !89, !noundef !90
  %89 = trunc i8 %88 to i1
  br i1 %89, label %97, label %90

90:                                               ; preds = %87
  %91 = load ptr, ptr %5, align 8, !tbaa !161
  %92 = getelementptr inbounds i8, ptr %91, i64 0
  %93 = load i8, ptr %92, align 1, !tbaa !140
  %94 = zext i8 %93 to i32
  %95 = or i32 %94, 128
  %96 = trunc i32 %95 to i8
  store i8 %96, ptr %92, align 1, !tbaa !140
  br label %97

97:                                               ; preds = %90, %87
  call void @llvm.lifetime.end.p0(i64 8, ptr %13) #19
  call void @llvm.lifetime.end.p0(i64 8, ptr %12) #19
  call void @llvm.lifetime.end.p0(i64 1, ptr %6) #19
  ret void
}