; Function Attrs: mustprogress uwtable
define internal fastcc void @_ZN6duckdbL19WriteParquetDecimalENS_9hugeint_tEPh(i64 %0, i64 %1, ptr noundef nonnull captures(none) %2) unnamed_addr #0 {
  %4 = alloca %"struct.duckdb::hugeint_t", align 8
  %5 = alloca %"struct.duckdb::hugeint_t", align 8
  %6 = alloca %"struct.duckdb::hugeint_t", align 8
  %7 = alloca %"struct.duckdb::hugeint_t", align 8
  %8 = alloca %"struct.duckdb::hugeint_t", align 8
  store i64 %0, ptr %4, align 8
  %9 = getelementptr inbounds nuw i8, ptr %4, i64 8
  store i64 %1, ptr %9, align 8
  call void @llvm.lifetime.start.p0(i64 16, ptr nonnull %5) #25
  call void @_ZN6duckdb9hugeint_tC1El(ptr noundef nonnull align 8 dereferenceable(16) %5, i64 noundef 0)
  %10 = call noundef zeroext i1 @_ZNK6duckdb9hugeint_tgeERKS0_(ptr noundef nonnull align 8 dereferenceable(16) %4, ptr noundef nonnull align 8 dereferenceable(16) %5)
  call void @llvm.lifetime.end.p0(i64 16, ptr nonnull %5) #25
  br i1 %10, label %._crit_edge, label %11

._crit_edge:                                      ; preds = %3
  %.pre = load i64, ptr %9, align 8, !tbaa !129
  %.pre20 = load i64, ptr %4, align 8, !tbaa !131
  br label %20

11:                                               ; preds = %3
  call void @llvm.lifetime.start.p0(i64 16, ptr nonnull %6) #25
  call void @llvm.lifetime.start.p0(i64 16, ptr nonnull %7) #25
  store i64 -1, ptr %7, align 8
  %12 = getelementptr inbounds nuw i8, ptr %7, i64 8
  store i64 9223372036854775807, ptr %12, align 8
  %13 = call { i64, i64 } @_ZNK6duckdb9hugeint_tplERKS0_(ptr noundef nonnull align 8 dereferenceable(16) %7, ptr noundef nonnull align 8 dereferenceable(16) %4)
  %14 = extractvalue { i64, i64 } %13, 0
  store i64 %14, ptr %6, align 8
  %15 = getelementptr inbounds nuw i8, ptr %6, i64 8
  %16 = extractvalue { i64, i64 } %13, 1
  store i64 %16, ptr %15, align 8
  call void @llvm.lifetime.start.p0(i64 16, ptr nonnull %8) #25
  call void @_ZN6duckdb9hugeint_tC1El(ptr noundef nonnull align 8 dereferenceable(16) %8, i64 noundef 1)
  %17 = call { i64, i64 } @_ZNK6duckdb9hugeint_tplERKS0_(ptr noundef nonnull align 8 dereferenceable(16) %6, ptr noundef nonnull align 8 dereferenceable(16) %8)
  %18 = extractvalue { i64, i64 } %17, 0
  %19 = extractvalue { i64, i64 } %17, 1
  call void @llvm.lifetime.end.p0(i64 16, ptr nonnull %8) #25
  call void @llvm.lifetime.end.p0(i64 16, ptr nonnull %7) #25
  call void @llvm.lifetime.end.p0(i64 16, ptr nonnull %6) #25
  br label %20

20:                                               ; preds = %._crit_edge, %11
  %21 = phi i64 [ %.pre20, %._crit_edge ], [ %18, %11 ]
  %22 = phi i64 [ %.pre, %._crit_edge ], [ %19, %11 ]
  br label %23

23:                                               ; preds = %20, %23
  %.017 = phi i64 [ 0, %20 ], [ %29, %23 ]
  %24 = shl nuw nsw i64 %.017, 3
  %25 = sub nuw nsw i64 56, %24
  %26 = lshr i64 %22, %25
  %27 = trunc i64 %26 to i8
  %28 = getelementptr inbounds nuw i8, ptr %2, i64 %.017
  store i8 %27, ptr %28, align 1, !tbaa !115
  %29 = add nuw nsw i64 %.017, 1
  %exitcond.not = icmp eq i64 %29, 8
  br i1 %exitcond.not, label %.preheader, label %23, !llvm.loop !132

30:                                               ; preds = %.preheader
  br i1 %10, label %41, label %38

.preheader:                                       ; preds = %23, %.preheader
  %.01618 = phi i64 [ %37, %.preheader ], [ 0, %23 ]
  %31 = shl nuw nsw i64 %.01618, 3
  %32 = sub nuw nsw i64 56, %31
  %33 = lshr i64 %21, %32
  %34 = trunc i64 %33 to i8
  %35 = or disjoint i64 %.01618, 8
  %36 = getelementptr inbounds nuw i8, ptr %2, i64 %35
  store i8 %34, ptr %36, align 1, !tbaa !115
  %37 = add nuw nsw i64 %.01618, 1
  %exitcond19.not = icmp eq i64 %37, 8
  br i1 %exitcond19.not, label %30, label %.preheader, !llvm.loop !133

38:                                               ; preds = %30
  %39 = load i8, ptr %2, align 1, !tbaa !115
  %40 = or i8 %39, -128
  store i8 %40, ptr %2, align 1, !tbaa !115
  br label %41

41:                                               ; preds = %38, %30
  ret void
}